target datalayout = "e-m:e-p270:32:32-p271:32:32-p272:64:64-i64:64-i128:128-f80:128-n8:16:32:64-S128"
target triple = "x86_64-unknown-linux-gnu"

%struct.asn1_string_st = type { i32, i32, ptr, i64 }

; Function Attrs: nounwind uwtable
define hidden void @ASN1_STRING_set0(ptr noundef %str, ptr noundef %data, i32 noundef %len) #0 {
entry:
  %str.addr = alloca ptr, align 8
  %data.addr = alloca ptr, align 8
  %len.addr = alloca i32, align 4
  store ptr %str, ptr %str.addr, align 8
  store ptr %data, ptr %data.addr, align 8
  store i32 %len, ptr %len.addr, align 4
  %0 = load ptr, ptr %str.addr, align 8
  %data1 = getelementptr inbounds %struct.asn1_string_st, ptr %0, i32 0, i32 2
  %1 = load ptr, ptr %data1, align 8
  %tobool = icmp ne ptr %1, null
  br i1 %tobool, label %if.then, label %if.end

if.then:                                          ; preds = %entry
  %2 = load ptr, ptr %str.addr, align 8
  %data2 = getelementptr inbounds %struct.asn1_string_st, ptr %2, i32 0, i32 2
  %3 = load ptr, ptr %data2, align 8
  call void @free(ptr noundef %3) #10
  br label %if.end

if.end:                                           ; preds = %if.then, %entry
  %4 = load ptr, ptr %data.addr, align 8
  %5 = load ptr, ptr %str.addr, align 8
  %data3 = getelementptr inbounds %struct.asn1_string_st, ptr %5, i32 0, i32 2
  store ptr %4, ptr %data3, align 8
  %6 = load i32, ptr %len.addr, align 4
  %7 = load ptr, ptr %str.addr, align 8
  %length = getelementptr inbounds %struct.asn1_string_st, ptr %7, i32 0, i32 0
  store i32 %6, ptr %length, align 8
  ret void
}