; Function Attrs: mustprogress nounwind willreturn uwtable
define hidden void @ASN1_STRING_set0(ptr noundef captures(none) initializes((0, 4)) %str, ptr noundef %data, i32 noundef %len) local_unnamed_addr #6 {
entry:
  %data1 = getelementptr inbounds nuw i8, ptr %str, i64 8
  %0 = load ptr, ptr %data1, align 8
  %tobool.not = icmp eq ptr %0, null
  br i1 %tobool.not, label %if.end, label %if.then

if.then:                                          ; preds = %entry
  tail call void @free(ptr noundef nonnull %0) #16
  br label %if.end

if.end:                                           ; preds = %if.then, %entry
  store ptr %data, ptr %data1, align 8
  store i32 %len, ptr %str, align 8
  ret void
}